target datalayout = "e-m:e-p270:32:32-p271:32:32-p272:64:64-i64:64-i128:128-f80:128-n8:16:32:64-S128"
target triple = "x86_64-pc-linux-gnu"

%struct._zend_gc_globals = type { ptr, i8, i8, i8, i8, i32, i32, i32, i32, i32, i32, i32, i64, i64, i64, i64 }
%struct._zend_refcounted_h = type { i32, %union.anon }
%union.anon = type { i32 }
%struct._gc_root_buffer = type { ptr }
%struct._zend_refcounted = type { %struct._zend_refcounted_h }

@gc_globals = internal global %struct._zend_gc_globals zeroinitializer, align 8
@.str = private unnamed_addr constant [34 x i8] c"GC buffer overflow (GC disabled)\0A\00", align 1

; Function Attrs: nounwind uwtable
define internal void @gc_grow_root_buffer() #0 {
  %1 = alloca i64, align 8
  %2 = load i32, ptr getelementptr inbounds (%struct._zend_gc_globals, ptr @gc_globals, i32 0, i32 8), align 8
  %3 = icmp uge i32 %2, 1073741824
  br i1 %3, label %4, label %9

4:                                                ; preds = %0
  %5 = load i8, ptr getelementptr inbounds (%struct._zend_gc_globals, ptr @gc_globals, i32 0, i32 4), align 1
  %6 = trunc i8 %5 to i1
  br i1 %6, label %8, label %7

7:                                                ; preds = %4
  call void (i32, ptr, ...) @zend_error(i32 noundef 2, ptr noundef @.str)
  store i8 1, ptr getelementptr inbounds (%struct._zend_gc_globals, ptr @gc_globals, i32 0, i32 2), align 1
  store i8 1, ptr getelementptr inbounds (%struct._zend_gc_globals, ptr @gc_globals, i32 0, i32 3), align 2
  store i8 1, ptr getelementptr inbounds (%struct._zend_gc_globals, ptr @gc_globals, i32 0, i32 4), align 1
  br label %31

8:                                                ; preds = %4
  br label %9

9:                                                ; preds = %8, %0
  %10 = load i32, ptr getelementptr inbounds (%struct._zend_gc_globals, ptr @gc_globals, i32 0, i32 8), align 8
  %11 = icmp ult i32 %10, 131072
  br i1 %11, label %12, label %16

12:                                               ; preds = %9
  %13 = load i32, ptr getelementptr inbounds (%struct._zend_gc_globals, ptr @gc_globals, i32 0, i32 8), align 8
  %14 = mul i32 %13, 2
  %15 = zext i32 %14 to i64
  store i64 %15, ptr %1, align 8
  br label %20

16:                                               ; preds = %9
  %17 = load i32, ptr getelementptr inbounds (%struct._zend_gc_globals, ptr @gc_globals, i32 0, i32 8), align 8
  %18 = add i32 %17, 131072
  %19 = zext i32 %18 to i64
  store i64 %19, ptr %1, align 8
  br label %20

20:                                               ; preds = %16, %12
  %21 = load i64, ptr %1, align 8
  %22 = icmp ugt i64 %21, 1073741824
  br i1 %22, label %23, label %24

23:                                               ; preds = %20
  store i64 1073741824, ptr %1, align 8
  br label %24

24:                                               ; preds = %23, %20
  %25 = load ptr, ptr @gc_globals, align 8
  %26 = load i64, ptr %1, align 8
  %27 = mul i64 8, %26
  %28 = call ptr @__zend_realloc(ptr noundef %25, i64 noundef %27) #9
  store ptr %28, ptr @gc_globals, align 8
  %29 = load i64, ptr %1, align 8
  %30 = trunc i64 %29 to i32
  store i32 %30, ptr getelementptr inbounds (%struct._zend_gc_globals, ptr @gc_globals, i32 0, i32 8), align 8
  br label %31

31:                                               ; preds = %24, %7
  ret void
}

; Function Attrs: nounwind uwtable
define internal void @gc_extra_root(ptr noundef %0) #0 {
  %2 = alloca i32, align 4
  %3 = alloca i32, align 4
  %4 = alloca i32, align 4
  %5 = alloca i32, align 4
  %6 = alloca i32, align 4
  %7 = alloca ptr, align 8
  %8 = alloca ptr, align 8
  %9 = alloca i32, align 4
  %10 = alloca ptr, align 8
  store ptr %0, ptr %8, align 8
  %11 = load i32, ptr getelementptr inbounds (%struct._zend_gc_globals, ptr @gc_globals, i32 0, i32 5), align 4
  %12 = icmp ne i32 %11, 0
  %13 = xor i1 %12, true
  %14 = xor i1 %13, true
  %15 = zext i1 %14 to i32
  %16 = sext i32 %15 to i64
  %17 = icmp ne i64 %16, 0
  br i1 %17, label %18, label %39

18:                                               ; preds = %1
  %19 = load i32, ptr getelementptr inbounds (%struct._zend_gc_globals, ptr @gc_globals, i32 0, i32 5), align 4
  %20 = icmp ne i32 %19, 0
  call void @llvm.assume(i1 %20)
  %21 = load i32, ptr getelementptr inbounds (%struct._zend_gc_globals, ptr @gc_globals, i32 0, i32 5), align 4
  store i32 %21, ptr %6, align 4
  %22 = load ptr, ptr @gc_globals, align 8
  %23 = load i32, ptr %6, align 4
  %24 = zext i32 %23 to i64
  %25 = getelementptr inbounds %struct._gc_root_buffer, ptr %22, i64 %24
  store ptr %25, ptr %7, align 8
  %26 = load ptr, ptr %7, align 8
  %27 = load ptr, ptr %26, align 8
  %28 = ptrtoint ptr %27 to i64
  %29 = and i64 %28, 3
  %30 = icmp eq i64 %29, 1
  call void @llvm.assume(i1 %30)
  %31 = load ptr, ptr %7, align 8
  %32 = load ptr, ptr %31, align 8
  %33 = ptrtoint ptr %32 to i64
  %34 = trunc i64 %33 to i32
  %35 = zext i32 %34 to i64
  %36 = udiv i64 %35, 8
  %37 = trunc i64 %36 to i32
  store i32 %37, ptr getelementptr inbounds (%struct._zend_gc_globals, ptr @gc_globals, i32 0, i32 5), align 4
  %38 = load i32, ptr %6, align 4
  store i32 %38, ptr %9, align 4
  br label %76

39:                                               ; preds = %1
  %40 = load i32, ptr getelementptr inbounds (%struct._zend_gc_globals, ptr @gc_globals, i32 0, i32 6), align 8
  %41 = load i32, ptr getelementptr inbounds (%struct._zend_gc_globals, ptr @gc_globals, i32 0, i32 7), align 4
  %42 = icmp ult i32 %40, %41
  %43 = xor i1 %42, true
  %44 = xor i1 %43, true
  %45 = zext i1 %44 to i32
  %46 = sext i32 %45 to i64
  %47 = icmp ne i64 %46, 0
  br i1 %47, label %48, label %56

48:                                               ; preds = %39
  %49 = load i32, ptr getelementptr inbounds (%struct._zend_gc_globals, ptr @gc_globals, i32 0, i32 6), align 8
  %50 = load i32, ptr getelementptr inbounds (%struct._zend_gc_globals, ptr @gc_globals, i32 0, i32 8), align 8
  %51 = icmp ne i32 %49, %50
  call void @llvm.assume(i1 %51)
  %52 = load i32, ptr getelementptr inbounds (%struct._zend_gc_globals, ptr @gc_globals, i32 0, i32 6), align 8
  store i32 %52, ptr %4, align 4
  %53 = load i32, ptr getelementptr inbounds (%struct._zend_gc_globals, ptr @gc_globals, i32 0, i32 6), align 8
  %54 = add i32 %53, 1
  store i32 %54, ptr getelementptr inbounds (%struct._zend_gc_globals, ptr @gc_globals, i32 0, i32 6), align 8
  %55 = load i32, ptr %4, align 4
  store i32 %55, ptr %9, align 4
  br label %75

56:                                               ; preds = %39
  call void @gc_grow_root_buffer()
  %57 = load i32, ptr getelementptr inbounds (%struct._zend_gc_globals, ptr @gc_globals, i32 0, i32 6), align 8
  %58 = load i32, ptr getelementptr inbounds (%struct._zend_gc_globals, ptr @gc_globals, i32 0, i32 8), align 8
  %59 = icmp ne i32 %57, %58
  %60 = xor i1 %59, true
  %61 = xor i1 %60, true
  %62 = xor i1 %61, true
  %63 = zext i1 %62 to i32
  %64 = sext i32 %63 to i64
  %65 = icmp ne i64 %64, 0
  br i1 %65, label %66, label %67

66:                                               ; preds = %56
  br label %124

67:                                               ; preds = %56
  %68 = load i32, ptr getelementptr inbounds (%struct._zend_gc_globals, ptr @gc_globals, i32 0, i32 6), align 8
  %69 = load i32, ptr getelementptr inbounds (%struct._zend_gc_globals, ptr @gc_globals, i32 0, i32 8), align 8
  %70 = icmp ne i32 %68, %69
  call void @llvm.assume(i1 %70)
  %71 = load i32, ptr getelementptr inbounds (%struct._zend_gc_globals, ptr @gc_globals, i32 0, i32 6), align 8
  store i32 %71, ptr %5, align 4
  %72 = load i32, ptr getelementptr inbounds (%struct._zend_gc_globals, ptr @gc_globals, i32 0, i32 6), align 8
  %73 = add i32 %72, 1
  store i32 %73, ptr getelementptr inbounds (%struct._zend_gc_globals, ptr @gc_globals, i32 0, i32 6), align 8
  %74 = load i32, ptr %5, align 4
  store i32 %74, ptr %9, align 4
  br label %75

75:                                               ; preds = %67, %48
  br label %76

76:                                               ; preds = %75, %18
  %77 = load ptr, ptr %8, align 8
  %78 = getelementptr inbounds %struct._zend_refcounted, ptr %77, i32 0, i32 0
  %79 = getelementptr inbounds %struct._zend_refcounted_h, ptr %78, i32 0, i32 1
  %80 = load i32, ptr %79, align 4
  %81 = and i32 %80, 1073740800
  %82 = lshr i32 %81, 10
  %83 = icmp eq i32 %82, 0
  call void @llvm.assume(i1 %83)
  %84 = load ptr, ptr @gc_globals, align 8
  %85 = load i32, ptr %9, align 4
  %86 = zext i32 %85 to i64
  %87 = getelementptr inbounds %struct._gc_root_buffer, ptr %84, i64 %86
  store ptr %87, ptr %10, align 8
  %88 = load ptr, ptr %8, align 8
  %89 = load ptr, ptr %10, align 8
  %90 = getelementptr inbounds %struct._gc_root_buffer, ptr %89, i32 0, i32 0
  store ptr %88, ptr %90, align 8
  %91 = load i32, ptr %9, align 4
  store i32 %91, ptr %3, align 4
  %92 = load i32, ptr %3, align 4
  %93 = icmp ult i32 %92, 524288
  br i1 %93, label %94, label %96

94:                                               ; preds = %76
  %95 = load i32, ptr %3, align 4
  store i32 %95, ptr %2, align 4
  br label %100

96:                                               ; preds = %76
  %97 = load i32, ptr %3, align 4
  %98 = urem i32 %97, 524288
  %99 = or i32 %98, 524288
  store i32 %99, ptr %2, align 4
  br label %100

100:                                              ; preds = %96, %94
  %101 = load i32, ptr %2, align 4
  store i32 %101, ptr %9, align 4
  br label %102

102:                                              ; preds = %100
  %103 = load ptr, ptr %8, align 8
  %104 = getelementptr inbounds %struct._zend_refcounted, ptr %103, i32 0, i32 0
  %105 = getelementptr inbounds %struct._zend_refcounted_h, ptr %104, i32 0, i32 1
  %106 = load i32, ptr %105, align 4
  %107 = and i32 %106, 1023
  %108 = load i32, ptr %9, align 4
  %109 = load ptr, ptr %8, align 8
  %110 = getelementptr inbounds %struct._zend_refcounted, ptr %109, i32 0, i32 0
  %111 = getelementptr inbounds %struct._zend_refcounted_h, ptr %110, i32 0, i32 1
  %112 = load i32, ptr %111, align 4
  %113 = and i32 %112, -1073741824
  %114 = lshr i32 %113, 10
  %115 = or i32 %108, %114
  %116 = shl i32 %115, 10
  %117 = or i32 %107, %116
  %118 = load ptr, ptr %8, align 8
  %119 = getelementptr inbounds %struct._zend_refcounted, ptr %118, i32 0, i32 0
  %120 = getelementptr inbounds %struct._zend_refcounted_h, ptr %119, i32 0, i32 1
  store i32 %117, ptr %120, align 4
  br label %121

121:                                              ; preds = %102
  %122 = load i32, ptr getelementptr inbounds (%struct._zend_gc_globals, ptr @gc_globals, i32 0, i32 9), align 4
  %123 = add i32 %122, 1
  store i32 %123, ptr getelementptr inbounds (%struct._zend_gc_globals, ptr @gc_globals, i32 0, i32 9), align 4
  br label %124

124:                                              ; preds = %121, %66
  ret void
}