; Function Attrs: nounwind uwtable
define internal fastcc void @gc_extra_root(ptr noundef %0) unnamed_addr #2 {
  %2 = load i32, ptr getelementptr inbounds (%struct._zend_gc_globals, ptr @gc_globals, i64 0, i32 5), align 4
  %.not = icmp eq i32 %2, 0
  br i1 %.not, label %13, label %3

3:                                                ; preds = %1
  %4 = load ptr, ptr @gc_globals, align 8
  %5 = zext i32 %2 to i64
  %6 = getelementptr inbounds %struct._gc_root_buffer, ptr %4, i64 %5
  %7 = load ptr, ptr %6, align 8
  %8 = ptrtoint ptr %7 to i64
  %9 = and i64 %8, 3
  %10 = icmp eq i64 %9, 1
  tail call void @llvm.assume(i1 %10)
  %11 = trunc i64 %8 to i32
  %12 = lshr i32 %11, 3
  store i32 %12, ptr getelementptr inbounds (%struct._zend_gc_globals, ptr @gc_globals, i64 0, i32 5), align 4
  br label %39

13:                                               ; preds = %1
  %14 = load i32, ptr getelementptr inbounds (%struct._zend_gc_globals, ptr @gc_globals, i64 0, i32 6), align 8
  %15 = load i32, ptr getelementptr inbounds (%struct._zend_gc_globals, ptr @gc_globals, i64 0, i32 7), align 4
  %16 = icmp ult i32 %14, %15
  %17 = load i32, ptr getelementptr inbounds (%struct._zend_gc_globals, ptr @gc_globals, i64 0, i32 8), align 8
  br i1 %16, label %18, label %21

18:                                               ; preds = %13
  %19 = icmp ne i32 %14, %17
  tail call void @llvm.assume(i1 %19)
  %20 = add nuw i32 %14, 1
  store i32 %20, ptr getelementptr inbounds (%struct._zend_gc_globals, ptr @gc_globals, i64 0, i32 6), align 8
  br label %39

21:                                               ; preds = %13
  %22 = icmp ugt i32 %17, 1073741823
  br i1 %22, label %23, label %27

23:                                               ; preds = %21
  %24 = load i8, ptr getelementptr inbounds (%struct._zend_gc_globals, ptr @gc_globals, i64 0, i32 4), align 1
  %25 = and i8 %24, 1
  %.not.i = icmp eq i8 %25, 0
  br i1 %.not.i, label %26, label %27

26:                                               ; preds = %23
  tail call void (i32, ptr, ...) @zend_error(i32 noundef 2, ptr noundef nonnull @.str) #15
  store i8 1, ptr getelementptr inbounds (%struct._zend_gc_globals, ptr @gc_globals, i64 0, i32 2), align 1
  store i8 1, ptr getelementptr inbounds (%struct._zend_gc_globals, ptr @gc_globals, i64 0, i32 3), align 2
  store i8 1, ptr getelementptr inbounds (%struct._zend_gc_globals, ptr @gc_globals, i64 0, i32 4), align 1
  %.pre = load i32, ptr getelementptr inbounds (%struct._zend_gc_globals, ptr @gc_globals, i64 0, i32 8), align 8
  br label %gc_grow_root_buffer.exit

27:                                               ; preds = %23, %21
  %28 = icmp ult i32 %17, 131072
  %29 = shl nuw nsw i32 %17, 1
  %30 = add i32 %17, 131072
  %.0.in.i = select i1 %28, i32 %29, i32 %30
  %31 = tail call i32 @llvm.umin.i32(i32 %.0.in.i, i32 1073741824)
  %spec.store.select.i = zext nneg i32 %31 to i64
  %32 = load ptr, ptr @gc_globals, align 8
  %33 = shl nuw nsw i64 %spec.store.select.i, 3
  %34 = tail call ptr @__zend_realloc(ptr noundef %32, i64 noundef %33) #17
  store ptr %34, ptr @gc_globals, align 8
  store i32 %31, ptr getelementptr inbounds (%struct._zend_gc_globals, ptr @gc_globals, i64 0, i32 8), align 8
  br label %gc_grow_root_buffer.exit

gc_grow_root_buffer.exit:                         ; preds = %26, %27
  %35 = phi i32 [ %.pre, %26 ], [ %31, %27 ]
  %36 = load i32, ptr getelementptr inbounds (%struct._zend_gc_globals, ptr @gc_globals, i64 0, i32 6), align 8
  %.not21 = icmp eq i32 %36, %35
  br i1 %.not21, label %56, label %37

37:                                               ; preds = %gc_grow_root_buffer.exit
  %38 = add i32 %36, 1
  store i32 %38, ptr getelementptr inbounds (%struct._zend_gc_globals, ptr @gc_globals, i64 0, i32 6), align 8
  br label %39

39:                                               ; preds = %18, %37, %3
  %.018 = phi i32 [ %2, %3 ], [ %14, %18 ], [ %36, %37 ]
  %40 = getelementptr inbounds i8, ptr %0, i64 4
  %41 = load i32, ptr %40, align 4
  %42 = and i32 %41, 1073740800
  %43 = icmp eq i32 %42, 0
  tail call void @llvm.assume(i1 %43)
  %44 = load ptr, ptr @gc_globals, align 8
  %45 = zext i32 %.018 to i64
  %46 = getelementptr inbounds %struct._gc_root_buffer, ptr %44, i64 %45
  store ptr %0, ptr %46, align 8
  %47 = icmp ult i32 %.018, 524288
  %48 = and i32 %.018, 524287
  %49 = or disjoint i32 %48, 524288
  %.0 = select i1 %47, i32 %.018, i32 %49
  %50 = load i32, ptr %40, align 4
  %51 = shl i32 %.0, 10
  %52 = and i32 %50, -1073740801
  %53 = or i32 %52, %51
  store i32 %53, ptr %40, align 4
  %54 = load i32, ptr getelementptr inbounds (%struct._zend_gc_globals, ptr @gc_globals, i64 0, i32 9), align 4
  %55 = add i32 %54, 1
  store i32 %55, ptr getelementptr inbounds (%struct._zend_gc_globals, ptr @gc_globals, i64 0, i32 9), align 4
  br label %56

56:                                               ; preds = %gc_grow_root_buffer.exit, %39
  ret void
}